target datalayout = "e-m:e-p270:32:32-p271:32:32-p272:64:64-i64:64-i128:128-f80:128-n8:16:32:64-S128"
target triple = "x86_64-pc-linux-gnu"

%struct.jpeg_decompress_struct = type { ptr, ptr, ptr, ptr, i32, i32, ptr, i32, i32, i32, i32, i32, i32, i32, double, i32, i32, i32, i32, i32, i32, i32, i32, i32, i32, i32, i32, i32, i32, i32, i32, i32, i32, ptr, i32, i32, i32, i32, i32, ptr, [4 x ptr], [4 x ptr], [4 x ptr], i32, ptr, i32, i32, [16 x i8], [16 x i8], [16 x i8], i32, i32, i8, i8, i8, i16, i16, i32, i8, i32, ptr, i32, i32, i32, i32, ptr, i32, [4 x ptr], i32, i32, i32, [10 x i32], i32, i32, i32, i32, i32, ptr, ptr, ptr, ptr, ptr, ptr, ptr, ptr, ptr, ptr, ptr }
%struct.jpeg_memory_mgr = type { ptr, ptr, ptr, ptr, ptr, ptr, ptr, ptr, ptr, ptr, ptr, i64, i64 }
%struct.phuff_entropy_decoder = type { %struct.jpeg_entropy_decoder, %struct.bitread_perm_state, %struct.savable_state, i32, [4 x ptr], ptr }
%struct.jpeg_entropy_decoder = type { ptr, ptr, ptr, ptr, i32 }
%struct.bitread_perm_state = type { i64, i32 }
%struct.savable_state = type { i32, [4 x i32] }

; Function Attrs: nounwind uwtable
define void @jinit_phuff_decoder(ptr noundef %0) #0 {
  %2 = alloca ptr, align 8
  %3 = alloca ptr, align 8
  %4 = alloca ptr, align 8
  %5 = alloca i32, align 4
  %6 = alloca i32, align 4
  store ptr %0, ptr %2, align 8, !tbaa !3
  call void @llvm.lifetime.start.p0(i64 8, ptr %3) #4
  call void @llvm.lifetime.start.p0(i64 8, ptr %4) #4
  call void @llvm.lifetime.start.p0(i64 4, ptr %5) #4
  call void @llvm.lifetime.start.p0(i64 4, ptr %6) #4
  %7 = load ptr, ptr %2, align 8, !tbaa !3
  %8 = getelementptr inbounds nuw %struct.jpeg_decompress_struct, ptr %7, i32 0, i32 1
  %9 = load ptr, ptr %8, align 8, !tbaa !8
  %10 = getelementptr inbounds nuw %struct.jpeg_memory_mgr, ptr %9, i32 0, i32 0
  %11 = load ptr, ptr %10, align 8, !tbaa !32
  %12 = load ptr, ptr %2, align 8, !tbaa !3
  %13 = call ptr %11(ptr noundef %12, i32 noundef 1, i64 noundef 120)
  store ptr %13, ptr %3, align 8, !tbaa !35
  %14 = load ptr, ptr %3, align 8, !tbaa !35
  %15 = load ptr, ptr %2, align 8, !tbaa !3
  %16 = getelementptr inbounds nuw %struct.jpeg_decompress_struct, ptr %15, i32 0, i32 83
  store ptr %14, ptr %16, align 8, !tbaa !36
  %17 = load ptr, ptr %3, align 8, !tbaa !35
  %18 = getelementptr inbounds nuw %struct.phuff_entropy_decoder, ptr %17, i32 0, i32 0
  %19 = getelementptr inbounds nuw %struct.jpeg_entropy_decoder, ptr %18, i32 0, i32 0
  store ptr @start_pass_phuff_decoder, ptr %19, align 8, !tbaa !37
  store i32 0, ptr %6, align 4, !tbaa !42
  br label %20

20:                                               ; preds = %29, %1
  %21 = load i32, ptr %6, align 4, !tbaa !42
  %22 = icmp slt i32 %21, 4
  br i1 %22, label %23, label %32

23:                                               ; preds = %20
  %24 = load ptr, ptr %3, align 8, !tbaa !35
  %25 = getelementptr inbounds nuw %struct.phuff_entropy_decoder, ptr %24, i32 0, i32 4
  %26 = load i32, ptr %6, align 4, !tbaa !42
  %27 = sext i32 %26 to i64
  %28 = getelementptr inbounds [4 x ptr], ptr %25, i64 0, i64 %27
  store ptr null, ptr %28, align 8, !tbaa !35
  br label %29

29:                                               ; preds = %23
  %30 = load i32, ptr %6, align 4, !tbaa !42
  %31 = add nsw i32 %30, 1
  store i32 %31, ptr %6, align 4, !tbaa !42
  br label %20, !llvm.loop !43

32:                                               ; preds = %20
  %33 = load ptr, ptr %2, align 8, !tbaa !3
  %34 = getelementptr inbounds nuw %struct.jpeg_decompress_struct, ptr %33, i32 0, i32 1
  %35 = load ptr, ptr %34, align 8, !tbaa !8
  %36 = getelementptr inbounds nuw %struct.jpeg_memory_mgr, ptr %35, i32 0, i32 0
  %37 = load ptr, ptr %36, align 8, !tbaa !32
  %38 = load ptr, ptr %2, align 8, !tbaa !3
  %39 = load ptr, ptr %2, align 8, !tbaa !3
  %40 = getelementptr inbounds nuw %struct.jpeg_decompress_struct, ptr %39, i32 0, i32 9
  %41 = load i32, ptr %40, align 8, !tbaa !45
  %42 = mul nsw i32 %41, 2
  %43 = mul nsw i32 %42, 64
  %44 = sext i32 %43 to i64
  %45 = mul i64 %44, 4
  %46 = call ptr %37(ptr noundef %38, i32 noundef 1, i64 noundef %45)
  %47 = load ptr, ptr %2, align 8, !tbaa !3
  %48 = getelementptr inbounds nuw %struct.jpeg_decompress_struct, ptr %47, i32 0, i32 39
  store ptr %46, ptr %48, align 8, !tbaa !46
  %49 = load ptr, ptr %2, align 8, !tbaa !3
  %50 = getelementptr inbounds nuw %struct.jpeg_decompress_struct, ptr %49, i32 0, i32 39
  %51 = load ptr, ptr %50, align 8, !tbaa !46
  %52 = getelementptr inbounds [64 x i32], ptr %51, i64 0
  %53 = getelementptr inbounds [64 x i32], ptr %52, i64 0, i64 0
  store ptr %53, ptr %4, align 8, !tbaa !47
  store i32 0, ptr %5, align 4, !tbaa !42
  br label %54

54:                                               ; preds = %71, %32
  %55 = load i32, ptr %5, align 4, !tbaa !42
  %56 = load ptr, ptr %2, align 8, !tbaa !3
  %57 = getelementptr inbounds nuw %struct.jpeg_decompress_struct, ptr %56, i32 0, i32 9
  %58 = load i32, ptr %57, align 8, !tbaa !45
  %59 = icmp slt i32 %55, %58
  br i1 %59, label %60, label %74

60:                                               ; preds = %54
  store i32 0, ptr %6, align 4, !tbaa !42
  br label %61

61:                                               ; preds = %67, %60
  %62 = load i32, ptr %6, align 4, !tbaa !42
  %63 = icmp slt i32 %62, 64
  br i1 %63, label %64, label %70

64:                                               ; preds = %61
  %65 = load ptr, ptr %4, align 8, !tbaa !47
  %66 = getelementptr inbounds nuw i32, ptr %65, i32 1
  store ptr %66, ptr %4, align 8, !tbaa !47
  store i32 -1, ptr %65, align 4, !tbaa !42
  br label %67

67:                                               ; preds = %64
  %68 = load i32, ptr %6, align 4, !tbaa !42
  %69 = add nsw i32 %68, 1
  store i32 %69, ptr %6, align 4, !tbaa !42
  br label %61, !llvm.loop !48

70:                                               ; preds = %61
  br label %71

71:                                               ; preds = %70
  %72 = load i32, ptr %5, align 4, !tbaa !42
  %73 = add nsw i32 %72, 1
  store i32 %73, ptr %5, align 4, !tbaa !42
  br label %54, !llvm.loop !49

74:                                               ; preds = %54
  call void @llvm.lifetime.end.p0(i64 4, ptr %6) #4
  call void @llvm.lifetime.end.p0(i64 4, ptr %5) #4
  call void @llvm.lifetime.end.p0(i64 8, ptr %4) #4
  call void @llvm.lifetime.end.p0(i64 8, ptr %3) #4
  ret void
}