; Function Attrs: nounwind uwtable
define void @jinit_phuff_decoder(ptr noundef %0) local_unnamed_addr #0 {
  %2 = getelementptr inbounds nuw i8, ptr %0, i64 8
  %3 = load ptr, ptr %2, align 8, !tbaa !3
  %4 = load ptr, ptr %3, align 8, !tbaa !30
  %5 = tail call ptr %4(ptr noundef %0, i32 noundef 1, i64 noundef 120) #6
  %6 = getelementptr inbounds nuw i8, ptr %0, i64 592
  store ptr %5, ptr %6, align 8, !tbaa !33
  store ptr @start_pass_phuff_decoder, ptr %5, align 8, !tbaa !34
  %7 = getelementptr inbounds nuw i8, ptr %5, i64 80
  tail call void @llvm.memset.p0.i64(ptr noundef nonnull align 8 dereferenceable(32) %7, i8 0, i64 32, i1 false), !tbaa !39
  %8 = load ptr, ptr %2, align 8, !tbaa !3
  %9 = load ptr, ptr %8, align 8, !tbaa !30
  %10 = getelementptr inbounds nuw i8, ptr %0, i64 56
  %11 = load i32, ptr %10, align 8, !tbaa !40
  %12 = shl nsw i32 %11, 7
  %13 = sext i32 %12 to i64
  %14 = shl nsw i64 %13, 2
  %15 = tail call ptr %9(ptr noundef %0, i32 noundef 1, i64 noundef %14) #6
  %16 = getelementptr inbounds nuw i8, ptr %0, i64 192
  store ptr %15, ptr %16, align 8, !tbaa !41
  %17 = load i32, ptr %10, align 8, !tbaa !40
  %18 = icmp sgt i32 %17, 0
  br i1 %18, label %.preheader, label %._crit_edge

.preheader:                                       ; preds = %1, %.preheader
  %.01926 = phi i32 [ %19, %.preheader ], [ 0, %1 ]
  %.02025 = phi ptr [ %scevgep, %.preheader ], [ %15, %1 ]
  tail call void @llvm.memset.p0.i64(ptr noundef nonnull align 4 dereferenceable(256) %.02025, i8 -1, i64 256, i1 false), !tbaa !42
  %scevgep = getelementptr i8, ptr %.02025, i64 256
  %19 = add nuw nsw i32 %.01926, 1
  %20 = load i32, ptr %10, align 8, !tbaa !40
  %21 = icmp slt i32 %19, %20
  br i1 %21, label %.preheader, label %._crit_edge, !llvm.loop !43

._crit_edge:                                      ; preds = %.preheader, %1
  ret void
}